target datalayout = "e-m:e-p270:32:32-p271:32:32-p272:64:64-i64:64-i128:128-f80:128-n8:16:32:64-S128"
target triple = "x86_64-unknown-linux-gnu"

%"class.llvh::Twine" = type <{ %"union.llvh::Twine::Child", %"union.llvh::Twine::Child", i8, i8, [6 x i8] }>
%"union.llvh::Twine::Child" = type { ptr }

; Function Attrs: mustprogress nounwind uwtable
define linkonce_odr hidden noundef zeroext i8 @_ZNK4llvh5Twine10getRHSKindEv(ptr noundef nonnull align 8 dereferenceable(18) %this) #0 comdat align 2 {
entry:
  %this.addr = alloca ptr, align 8
  store ptr %this, ptr %this.addr, align 8
  %this1 = load ptr, ptr %this.addr, align 8
  %RHSKind = getelementptr inbounds %"class.llvh::Twine", ptr %this1, i32 0, i32 3
  %0 = load i8, ptr %RHSKind, align 1
  ret i8 %0
}

; Function Attrs: mustprogress nounwind uwtable
define linkonce_odr hidden noundef zeroext i8 @_ZNK4llvh5Twine10getLHSKindEv(ptr noundef nonnull align 8 dereferenceable(18) %this) #0 comdat align 2 {
entry:
  %this.addr = alloca ptr, align 8
  store ptr %this, ptr %this.addr, align 8
  %this1 = load ptr, ptr %this.addr, align 8
  %LHSKind = getelementptr inbounds %"class.llvh::Twine", ptr %this1, i32 0, i32 2
  %0 = load i8, ptr %LHSKind, align 8
  ret i8 %0
}

; Function Attrs: mustprogress nounwind uwtable
define hidden void @_ZNK4llvh5Twine5printERNS_11raw_ostreamE(ptr noundef nonnull align 8 dereferenceable(18) %this, ptr noundef nonnull align 8 dereferenceable(36) %OS) #0 align 2 {
entry:
  %this.addr = alloca ptr, align 8
  %OS.addr = alloca ptr, align 8
  %agg.tmp = alloca %"union.llvh::Twine::Child", align 8
  %agg.tmp2 = alloca %"union.llvh::Twine::Child", align 8
  store ptr %this, ptr %this.addr, align 8
  store ptr %OS, ptr %OS.addr, align 8
  %this1 = load ptr, ptr %this.addr, align 8
  %0 = load ptr, ptr %OS.addr, align 8
  %LHS = getelementptr inbounds %"class.llvh::Twine", ptr %this1, i32 0, i32 0
  call void @llvm.memcpy.p0.p0.i64(ptr align 8 %agg.tmp, ptr align 8 %LHS, i64 8, i1 false)
  %call = call noundef zeroext i8 @_ZNK4llvh5Twine10getLHSKindEv(ptr noundef nonnull align 8 dereferenceable(18) %this1)
  %coerce.dive = getelementptr inbounds %"union.llvh::Twine::Child", ptr %agg.tmp, i32 0, i32 0
  %1 = load ptr, ptr %coerce.dive, align 8
  call void @_ZNK4llvh5Twine13printOneChildERNS_11raw_ostreamENS0_5ChildENS0_8NodeKindE(ptr noundef nonnull align 8 dereferenceable(18) %this1, ptr noundef nonnull align 8 dereferenceable(36) %0, ptr %1, i8 noundef zeroext %call)
  %2 = load ptr, ptr %OS.addr, align 8
  %RHS = getelementptr inbounds %"class.llvh::Twine", ptr %this1, i32 0, i32 1
  call void @llvm.memcpy.p0.p0.i64(ptr align 8 %agg.tmp2, ptr align 8 %RHS, i64 8, i1 false)
  %call3 = call noundef zeroext i8 @_ZNK4llvh5Twine10getRHSKindEv(ptr noundef nonnull align 8 dereferenceable(18) %this1)
  %coerce.dive4 = getelementptr inbounds %"union.llvh::Twine::Child", ptr %agg.tmp2, i32 0, i32 0
  %3 = load ptr, ptr %coerce.dive4, align 8
  call void @_ZNK4llvh5Twine13printOneChildERNS_11raw_ostreamENS0_5ChildENS0_8NodeKindE(ptr noundef nonnull align 8 dereferenceable(18) %this1, ptr noundef nonnull align 8 dereferenceable(36) %2, ptr %3, i8 noundef zeroext %call3)
  ret void
}