; Function Attrs: mustprogress nounwind uwtable
define hidden void @_ZNK4llvh5Twine5printERNS_11raw_ostreamE(ptr nocapture noundef nonnull readonly align 8 dereferenceable(18) %this, ptr noundef nonnull align 8 dereferenceable(36) %OS) local_unnamed_addr #0 align 2 {
entry:
  %agg.tmp.sroa.0.0.copyload = load ptr, ptr %this, align 8
  %LHSKind.i = getelementptr inbounds i8, ptr %this, i64 16
  %0 = load i8, ptr %LHSKind.i, align 8
  tail call void @_ZNK4llvh5Twine13printOneChildERNS_11raw_ostreamENS0_5ChildENS0_8NodeKindE(ptr nonnull align 8 poison, ptr noundef nonnull align 8 dereferenceable(36) %OS, ptr %agg.tmp.sroa.0.0.copyload, i8 noundef zeroext %0)
  %RHS = getelementptr inbounds i8, ptr %this, i64 8
  %agg.tmp2.sroa.0.0.copyload = load ptr, ptr %RHS, align 8
  %RHSKind.i = getelementptr inbounds i8, ptr %this, i64 17
  %1 = load i8, ptr %RHSKind.i, align 1
  tail call void @_ZNK4llvh5Twine13printOneChildERNS_11raw_ostreamENS0_5ChildENS0_8NodeKindE(ptr nonnull align 8 poison, ptr noundef nonnull align 8 dereferenceable(36) %OS, ptr %agg.tmp2.sroa.0.0.copyload, i8 noundef zeroext %1)
  ret void
}